target datalayout = "e-m:e-p270:32:32-p271:32:32-p272:64:64-i64:64-i128:128-f80:128-n8:16:32:64-S128"
target triple = "x86_64-pc-linux-gnu"

%struct.H5F_t = type { ptr, ptr, ptr, ptr, i32, ptr, i8, i8, ptr, i32 }

@.str = private unnamed_addr constant [101 x i8] c"generated/home/dtcxzyw/WorkSpace/Projects/compilers/llvm-opt-benchmark/bench/hdf5/hdf5/src/H5Ftest.c\00", align 1
@H5E_ARGS_g = external global i64, align 8
@H5E_BADTYPE_g = external global i64, align 8
@.str.1 = private unnamed_addr constant [11 x i8] c"not a file\00", align 1
@__func__.H5F__same_file_test = private unnamed_addr constant [20 x i8] c"H5F__same_file_test\00", align 1

; Function Attrs: nounwind uwtable
define i32 @H5F__same_file_test(i64 noundef %0, i64 noundef %1) #0 {
  %3 = alloca i64, align 8
  %4 = alloca i64, align 8
  %5 = alloca ptr, align 8
  %6 = alloca ptr, align 8
  %7 = alloca i32, align 4
  %8 = alloca i8, align 1
  store i64 %0, ptr %3, align 8
  store i64 %1, ptr %4, align 8
  store i32 -1, ptr %7, align 4
  store i8 0, ptr %8, align 1
  %9 = load i64, ptr %3, align 8
  %10 = call ptr @H5VL_object_verify(i64 noundef %9, i32 noundef 1)
  store ptr %10, ptr %5, align 8
  %11 = icmp eq ptr null, %10
  br i1 %11, label %12, label %27

12:                                               ; preds = %2
  br label %13

13:                                               ; preds = %12
  br label %14

14:                                               ; preds = %13
  br label %15

15:                                               ; preds = %14
  %16 = load i64, ptr @H5E_ARGS_g, align 8
  %17 = load i64, ptr @H5E_BADTYPE_g, align 8
  %18 = call i32 (ptr, ptr, i32, i64, i64, ptr, ...) @H5E_printf_stack(ptr noundef @.str, ptr noundef @__func__.H5F__same_file_test, i32 noundef 228, i64 noundef %16, i64 noundef %17, ptr noundef @.str.1)
  br label %19

19:                                               ; preds = %15
  store i8 1, ptr %8, align 1
  %20 = load i8, ptr %8, align 1
  %21 = trunc i8 %20 to i1
  %22 = zext i1 %21 to i8
  store i8 %22, ptr %8, align 1
  br label %23

23:                                               ; preds = %19
  br label %24

24:                                               ; preds = %23
  store i32 -1, ptr %7, align 4
  br label %55

25:                                               ; No predecessors!
  br label %26

26:                                               ; preds = %25
  br label %27

27:                                               ; preds = %26, %2
  %28 = load i64, ptr %4, align 8
  %29 = call ptr @H5VL_object_verify(i64 noundef %28, i32 noundef 1)
  store ptr %29, ptr %6, align 8
  %30 = icmp eq ptr null, %29
  br i1 %30, label %31, label %46

31:                                               ; preds = %27
  br label %32

32:                                               ; preds = %31
  br label %33

33:                                               ; preds = %32
  br label %34

34:                                               ; preds = %33
  %35 = load i64, ptr @H5E_ARGS_g, align 8
  %36 = load i64, ptr @H5E_BADTYPE_g, align 8
  %37 = call i32 (ptr, ptr, i32, i64, i64, ptr, ...) @H5E_printf_stack(ptr noundef @.str, ptr noundef @__func__.H5F__same_file_test, i32 noundef 230, i64 noundef %35, i64 noundef %36, ptr noundef @.str.1)
  br label %38

38:                                               ; preds = %34
  store i8 1, ptr %8, align 1
  %39 = load i8, ptr %8, align 1
  %40 = trunc i8 %39 to i1
  %41 = zext i1 %40 to i8
  store i8 %41, ptr %8, align 1
  br label %42

42:                                               ; preds = %38
  br label %43

43:                                               ; preds = %42
  store i32 -1, ptr %7, align 4
  br label %55

44:                                               ; No predecessors!
  br label %45

45:                                               ; preds = %44
  br label %46

46:                                               ; preds = %45, %27
  %47 = load ptr, ptr %5, align 8
  %48 = getelementptr inbounds %struct.H5F_t, ptr %47, i32 0, i32 2
  %49 = load ptr, ptr %48, align 8
  %50 = load ptr, ptr %6, align 8
  %51 = getelementptr inbounds %struct.H5F_t, ptr %50, i32 0, i32 2
  %52 = load ptr, ptr %51, align 8
  %53 = icmp eq ptr %49, %52
  %54 = zext i1 %53 to i32
  store i32 %54, ptr %7, align 4
  br label %55

55:                                               ; preds = %46, %43, %24
  %56 = load i32, ptr %7, align 4
  ret i32 %56
}