; Function Attrs: nounwind uwtable
define range(i32 -1, 2) i32 @H5F__same_file_test(i64 noundef %0, i64 noundef %1) local_unnamed_addr #0 {
  %3 = tail call ptr @H5VL_object_verify(i64 noundef %0, i32 noundef 1) #2
  %4 = icmp eq ptr %3, null
  br i1 %4, label %5, label %9

5:                                                ; preds = %2
  %6 = load i64, ptr @H5E_ARGS_g, align 8
  %7 = load i64, ptr @H5E_BADTYPE_g, align 8
  %8 = tail call i32 (ptr, ptr, i32, i64, i64, ptr, ...) @H5E_printf_stack(ptr noundef nonnull @.str, ptr noundef nonnull @__func__.H5F__same_file_test, i32 noundef 228, i64 noundef %6, i64 noundef %7, ptr noundef nonnull @.str.1) #2
  br label %23

9:                                                ; preds = %2
  %10 = tail call ptr @H5VL_object_verify(i64 noundef %1, i32 noundef 1) #2
  %11 = icmp eq ptr %10, null
  br i1 %11, label %12, label %16

12:                                               ; preds = %9
  %13 = load i64, ptr @H5E_ARGS_g, align 8
  %14 = load i64, ptr @H5E_BADTYPE_g, align 8
  %15 = tail call i32 (ptr, ptr, i32, i64, i64, ptr, ...) @H5E_printf_stack(ptr noundef nonnull @.str, ptr noundef nonnull @__func__.H5F__same_file_test, i32 noundef 230, i64 noundef %13, i64 noundef %14, ptr noundef nonnull @.str.1) #2
  br label %23

16:                                               ; preds = %9
  %17 = getelementptr inbounds i8, ptr %3, i64 16
  %18 = load ptr, ptr %17, align 8
  %19 = getelementptr inbounds i8, ptr %10, i64 16
  %20 = load ptr, ptr %19, align 8
  %21 = icmp eq ptr %18, %20
  %22 = zext i1 %21 to i32
  br label %23

23:                                               ; preds = %16, %12, %5
  %.0 = phi i32 [ -1, %5 ], [ -1, %12 ], [ %22, %16 ]
  ret i32 %.0
}